Certificate:
    Data:
        Version: 3 (0x2)
        Serial Number: 1 (0x1)
        Signature Algorithm: sha256WithRSAEncryption
        Issuer: C=FR, ST=Radius, L=Somewhere, O=Example Inc./emailAddress=admin@example.org, CN=Example Certificate Authority
        Validity
            Not Before: Jun  3 12:24:15 2023 GMT
            Not After : Aug  2 12:24:15 2023 GMT
        Subject: C=FR, ST=Radius, O=Example Inc., CN=Example Server Certificate/emailAddress=admin@example.org
        Subject Public Key Info:
            Public Key Algorithm: rsaEncryption
                RSA Public-Key: (2048 bit)
                Modulus:
                    00:c4:f6:7d:86:89:3e:7f:73:ee:3b:78:e0:e7:18:
                    4a:13:10:ab:45:b2:64:31:e2:d4:e6:2f:71:12:b4:
                    d9:39:50:f4:bb:a0:d5:15:ab:cd:1c:9c:dc:3f:c5:
                    3c:50:06:ea:04:d0:22:c1:7c:07:ce:2a:98:9b:c8:
                    71:94:fd:fe:01:12:4c:11:c5:7c:d6:f2:c2:75:79:
                    51:a3:ec:2d:38:ac:3c:54:9f:f9:de:f9:d0:db:94:
                    6a:66:51:07:15:4d:3e:97:92:09:52:a8:fb:f1:a8:
                    48:6d:7c:2a:0c:1c:e2:b0:50:7e:d2:7e:df:97:4e:
                    28:b0:7d:f9:82:b3:7e:52:db:cf:75:4b:f5:a5:90:
                    22:a8:6c:5b:77:79:21:0b:ba:c6:e5:88:86:ae:29:
                    00:4a:cb:40:81:22:93:00:32:42:c8:9d:96:ec:54:
                    ed:1c:d6:7a:88:f2:20:ce:24:23:86:02:55:8d:16:
                    24:7e:a0:90:86:0f:05:7d:e0:4c:47:ba:f7:ac:be:
                    b2:44:62:35:4d:95:00:1b:3f:77:18:c6:3f:46:b1:
                    96:39:2e:4f:01:9b:86:4e:62:4f:cd:d7:1e:52:1f:
                    e1:5c:c0:1f:5d:f8:b2:58:a8:33:8a:15:7d:92:89:
                    de:43:15:9f:5b:28:a8:4a:90:77:f7:65:6c:b1:58:
                    af:11
                Exponent: 65537 (0x10001)
        X509v3 extensions:
            X509v3 Extended Key Usage: 
                TLS Web Server Authentication
            X509v3 CRL Distribution Points: 

                Full Name:
                  URI:http://www.example.com/example_ca.crl

    Signature Algorithm: sha256WithRSAEncryption
         72:a3:46:47:f0:10:d0:f9:79:8c:4d:53:27:23:45:c1:68:cd:
         c4:52:14:cd:1a:85:be:19:e0:7a:bf:21:37:59:25:64:38:27:
         3a:88:15:87:42:a7:2d:f6:d1:58:90:03:8e:7f:12:15:8e:b8:
         38:80:e8:27:e6:43:1d:33:3c:cb:ce:8a:59:2c:e4:e6:1e:20:
         bd:9a:c4:3a:b2:31:7f:f5:08:c3:fd:cd:ae:de:f7:51:5f:8a:
         f6:a5:d7:a6:80:7f:0a:83:31:5f:7e:3b:a2:d3:59:d6:88:d4:
         f7:b5:c1:1e:fe:ca:9c:db:cf:66:54:ce:50:04:d4:67:0f:63:
         05:cb:8a:93:ae:91:e1:6a:46:f6:09:fe:7e:0d:88:d4:6e:62:
         6d:c3:ad:6b:8d:e1:d8:bd:fa:06:31:d2:07:b4:54:34:a4:14:
         2b:a8:72:87:c5:b7:18:71:74:94:a3:7c:96:da:bc:c4:d4:4d:
         83:8b:17:1a:a2:1c:61:07:f3:1d:09:ba:05:9a:25:d3:62:33:
         8c:cc:70:e1:cd:2e:91:a8:6a:d4:32:23:1a:98:d3:8c:2f:a3:
         2d:fa:43:ea:ab:b1:19:71:18:bf:81:14:d0:92:69:97:8d:72:
         5a:78:33:76:dd:58:d1:5f:e1:25:e1:87:9b:74:28:ad:23:2b:
         82:5b:3c:df
-----BEGIN CERTIFICATE-----
MIID2jCCAsKgAwIBAgIBATANBgkqhkiG9w0BAQsFADCBkzELMAkGA1UEBhMCRlIx
DzANBgNVBAgMBlJhZGl1czESMBAGA1UEBwwJU29tZXdoZXJlMRUwEwYDVQQKDAxF
eGFtcGxlIEluYy4xIDAeBgkqhkiG9w0BCQEWEWFkbWluQGV4YW1wbGUub3JnMSYw
JAYDVQQDDB1FeGFtcGxlIENlcnRpZmljYXRlIEF1dGhvcml0eTAeFw0yMzA2MDMx
MjI0MTVaFw0yMzA4MDIxMjI0MTVaMHwxCzAJBgNVBAYTAkZSMQ8wDQYDVQQIDAZS
YWRpdXMxFTATBgNVBAoMDEV4YW1wbGUgSW5jLjEjMCEGA1UEAwwaRXhhbXBsZSBT
ZXJ2ZXIgQ2VydGlmaWNhdGUxIDAeBgkqhkiG9w0BCQEWEWFkbWluQGV4YW1wbGUu
b3JnMIIBIjANBgkqhkiG9w0BAQEFAAOCAQ8AMIIBCgKCAQEAxPZ9hok+f3PuO3jg
5xhKExCrRbJkMeLU5i9xErTZOVD0u6DVFavNHJzcP8U8UAbqBNAiwXwHziqYm8hx
lP3+ARJMEcV81vLCdXlRo+wtOKw8VJ/53vnQ25RqZlEHFU0+l5IJUqj78ahIbXwq
DBzisFB+0n7fl04osH35grN+UtvPdUv1pZAiqGxbd3khC7rG5YiGrikASstAgSKT
ADJCyJ2W7FTtHNZ6iPIgziQjhgJVjRYkfqCQhg8FfeBMR7r3rL6yRGI1TZUAGz93
GMY/RrGWOS5PAZuGTmJPzdceUh/hXMAfXfiyWKgzihV9koneQxWfWyioSpB392Vs
sVivEQIDAQABo08wTTATBgNVHSUEDDAKBggrBgEFBQcDATA2BgNVHR8ELzAtMCug
KaAnhiVodHRwOi8vd3d3LmV4YW1wbGUuY29tL2V4YW1wbGVfY2EuY3JsMA0GCSqG
SIb3DQEBCwUAA4IBAQByo0ZH8BDQ+XmMTVMnI0XBaM3EUhTNGoW+GeB6vyE3WSVk
OCc6iBWHQqct9tFYkAOOfxIVjrg4gOgn5kMdMzzLzopZLOTmHiC9msQ6sjF/9QjD
/c2u3vdRX4r2pdemgH8KgzFffjui01nWiNT3tcEe/sqc289mVM5QBNRnD2MFy4qT
rpHhakb2Cf5+DYjUbmJtw61rjeHYvfoGMdIHtFQ0pBQrqHKHxbcYcXSUo3yW2rzE
1E2DixcaohxhB/MdCboFmiXTYjOMzHDhzS6RqGrUMiMamNOML6Mt+kPqq7EZcRi/
gRTQkmmXjXJaeDN23VjRX+El4YebdCitIyuCWzzf
-----END CERTIFICATE-----
