Certificate:
    Data:
        Version: 3 (0x2)
        Serial Number: 2 (0x2)
        Signature Algorithm: sha256WithRSAEncryption
        Issuer: C=FR, ST=Radius, L=Somewhere, O=Example Inc./emailAddress=admin@example.org, CN=Example Certificate Authority
        Validity
            Not Before: Jun  3 12:24:16 2023 GMT
            Not After : Aug  2 12:24:16 2023 GMT
        Subject: C=FR, ST=Radius, O=Example Inc., CN=user@example.org/emailAddress=user@example.org
        Subject Public Key Info:
            Public Key Algorithm: rsaEncryption
                RSA Public-Key: (2048 bit)
                Modulus:
                    00:d4:ab:e8:c5:41:ad:6e:3f:38:17:3f:1c:4f:51:
                    a4:cc:44:8e:b8:7a:21:95:3a:56:85:b6:6a:f7:f6:
                    bf:27:ba:fe:6a:a6:86:c7:7c:07:9d:73:46:27:91:
                    08:77:13:8d:fa:93:6d:02:4e:18:f7:02:61:08:03:
                    fb:88:53:fc:82:bb:96:f9:4a:31:1a:96:8c:6c:2b:
                    ec:f2:a0:95:f6:87:88:46:c7:89:9d:9e:a8:36:f2:
                    4e:1c:e0:51:59:85:90:db:d0:79:41:76:36:9d:37:
                    f4:c0:0e:43:57:68:bd:b1:58:86:c1:8c:af:ee:82:
                    f5:f5:f7:52:fb:28:60:e4:93:12:d6:98:94:fd:8d:
                    b7:5e:e1:00:0d:e4:1c:b5:c0:e7:bd:e3:67:51:d2:
                    7e:58:0d:e0:0d:37:de:04:a8:c2:33:0f:42:83:40:
                    0f:2d:e9:37:42:00:5d:3b:21:16:2b:8e:02:94:ab:
                    b7:1e:26:f2:9d:fe:e3:9d:23:1c:18:bc:05:3d:ea:
                    f0:f7:7b:6f:1c:4c:76:86:e4:02:bf:cd:ca:ed:01:
                    c8:bb:27:d3:35:18:35:11:ec:8c:7e:e5:5b:48:87:
                    25:74:f1:13:c6:32:d5:e9:9b:df:5d:ee:d3:d5:4d:
                    a5:b1:ef:bf:32:cc:df:d7:b4:f9:0e:13:b9:13:1e:
                    76:b9
                Exponent: 65537 (0x10001)
        X509v3 extensions:
            X509v3 Extended Key Usage: 
                TLS Web Client Authentication
            X509v3 CRL Distribution Points: 

                Full Name:
                  URI:http://www.example.com/example_ca.crl

    Signature Algorithm: sha256WithRSAEncryption
         33:8f:0a:69:9a:07:97:88:87:b8:d8:22:6a:cb:99:c6:9b:8a:
         ba:48:c6:d9:06:78:aa:76:96:49:60:56:83:4c:3d:7a:69:a5:
         80:07:21:2a:06:c2:65:93:25:da:90:db:27:bf:b8:26:64:2a:
         ba:1c:0f:17:f8:86:46:6a:df:9d:69:c1:b0:5d:ec:a5:f9:4f:
         26:18:a1:3e:e1:f2:38:d7:3a:7e:de:21:25:70:a7:46:f8:30:
         da:45:22:8f:12:ff:a7:1b:1e:f0:1a:73:4a:39:0c:3a:6b:5d:
         10:bb:84:0c:4d:28:51:db:6c:58:59:b4:b3:ee:03:35:07:57:
         fa:68:5a:42:d9:d9:5d:16:70:b0:9f:2f:1c:2e:72:26:0b:94:
         34:9f:2c:8f:d4:8e:01:2b:cc:06:75:74:56:93:4f:09:f7:9f:
         ce:4f:08:2c:3c:36:23:54:6c:ab:0b:b2:fa:44:5a:be:fd:ad:
         36:e7:dc:f9:01:9a:67:0f:d5:ca:ea:fa:df:bb:06:d9:c4:1d:
         ac:db:0f:84:40:db:39:78:f4:7f:3d:a9:89:d8:e3:f5:6f:47:
         24:68:53:a4:41:e6:85:b1:b8:9d:e2:b5:d9:20:cf:02:84:bc:
         53:5e:11:ba:d3:99:15:77:f3:82:e2:27:a9:bd:4f:47:22:17:
         1f:fb:81:8a
-----BEGIN CERTIFICATE-----
MIIDzzCCAregAwIBAgIBAjANBgkqhkiG9w0BAQsFADCBkzELMAkGA1UEBhMCRlIx
DzANBgNVBAgMBlJhZGl1czESMBAGA1UEBwwJU29tZXdoZXJlMRUwEwYDVQQKDAxF
eGFtcGxlIEluYy4xIDAeBgkqhkiG9w0BCQEWEWFkbWluQGV4YW1wbGUub3JnMSYw
JAYDVQQDDB1FeGFtcGxlIENlcnRpZmljYXRlIEF1dGhvcml0eTAeFw0yMzA2MDMx
MjI0MTZaFw0yMzA4MDIxMjI0MTZaMHExCzAJBgNVBAYTAkZSMQ8wDQYDVQQIDAZS
YWRpdXMxFTATBgNVBAoMDEV4YW1wbGUgSW5jLjEZMBcGA1UEAwwQdXNlckBleGFt
cGxlLm9yZzEfMB0GCSqGSIb3DQEJARYQdXNlckBleGFtcGxlLm9yZzCCASIwDQYJ
KoZIhvcNAQEBBQADggEPADCCAQoCggEBANSr6MVBrW4/OBc/HE9RpMxEjrh6IZU6
VoW2avf2vye6/mqmhsd8B51zRieRCHcTjfqTbQJOGPcCYQgD+4hT/IK7lvlKMRqW
jGwr7PKglfaHiEbHiZ2eqDbyThzgUVmFkNvQeUF2Np039MAOQ1dovbFYhsGMr+6C
9fX3UvsoYOSTEtaYlP2Nt17hAA3kHLXA573jZ1HSflgN4A033gSowjMPQoNADy3p
N0IAXTshFiuOApSrtx4m8p3+450jHBi8BT3q8Pd7bxxMdobkAr/Nyu0ByLsn0zUY
NRHsjH7lW0iHJXTxE8Yy1emb313u09VNpbHvvzLM39e0+Q4TuRMedrkCAwEAAaNP
ME0wEwYDVR0lBAwwCgYIKwYBBQUHAwIwNgYDVR0fBC8wLTAroCmgJ4YlaHR0cDov
L3d3dy5leGFtcGxlLmNvbS9leGFtcGxlX2NhLmNybDANBgkqhkiG9w0BAQsFAAOC
AQEAM48KaZoHl4iHuNgiasuZxpuKukjG2QZ4qnaWSWBWg0w9emmlgAchKgbCZZMl
2pDbJ7+4JmQquhwPF/iGRmrfnWnBsF3spflPJhihPuHyONc6ft4hJXCnRvgw2kUi
jxL/pxse8BpzSjkMOmtdELuEDE0oUdtsWFm0s+4DNQdX+mhaQtnZXRZwsJ8vHC5y
JguUNJ8sj9SOASvMBnV0VpNPCfefzk8ILDw2I1Rsqwuy+kRavv2tNufc+QGaZw/V
yur637sG2cQdrNsPhEDbOXj0fz2pidjj9W9HJGhTpEHmhbG4neK12SDPAoS8U14R
utOZFXfzguInqb1PRyIXH/uBig==
-----END CERTIFICATE-----
